; Function Attrs: nounwind uwtable
define internal range(i32 0, 2) i32 @Abc_CommandProfile(ptr noundef readonly captures(none) %0, i32 noundef %1, ptr noundef %2) #0 {
  %4 = getelementptr i8, ptr %0, i64 504
  %.val = load ptr, ptr %4, align 8, !tbaa !27
  tail call void (...) @Extra_UtilGetoptReset() #17
  br label %5

5:                                                ; preds = %7, %3
  %.0 = phi i32 [ 0, %3 ], [ %8, %7 ]
  %6 = tail call i32 @Extra_UtilGetopt(i32 noundef %1, ptr noundef %2, ptr noundef nonnull @.str.162) #17
  switch i32 %6, label %13 [
    i32 -1, label %9
    i32 118, label %7
  ]

7:                                                ; preds = %5
  %8 = xor i32 %.0, 1
  br label %5, !llvm.loop !104

9:                                                ; preds = %5
  %10 = icmp eq ptr %.val, null
  br i1 %10, label %11, label %12

11:                                               ; preds = %9
  tail call void (i32, ptr, ...) @Abc_Print(i32 noundef 1, ptr noundef nonnull @.str.174)
  br label %15

12:                                               ; preds = %9
  tail call void @Wlc_WinProfileArith(ptr noundef nonnull %.val) #17
  br label %15

13:                                               ; preds = %5
  tail call void (i32, ptr, ...) @Abc_Print(i32 noundef -2, ptr noundef nonnull @.str.175)
  tail call void (i32, ptr, ...) @Abc_Print(i32 noundef -2, ptr noundef nonnull @.str.176)
  %.not11 = icmp eq i32 %.0, 0
  %14 = select i1 %.not11, ptr @.str.42, ptr @.str.41
  tail call void (i32, ptr, ...) @Abc_Print(i32 noundef -2, ptr noundef nonnull @.str.45, ptr noundef nonnull %14)
  tail call void (i32, ptr, ...) @Abc_Print(i32 noundef -2, ptr noundef nonnull @.str.46)
  br label %15

15:                                               ; preds = %13, %12, %11
  %.08 = phi i32 [ 1, %13 ], [ 0, %11 ], [ 0, %12 ]
  ret i32 %.08
}